target datalayout = "e-m:e-p270:32:32-p271:32:32-p272:64:64-i64:64-i128:128-f80:128-n8:16:32:64-S128"
target triple = "x86_64-pc-linux-gnu"

%struct.lean_object = type { i32, i32 }

@l___private_Lean_Data_FuzzyMatching_0__Lean_FuzzyMatching_fuzzyMatchCore_allowMatch___lambda__2___closed__2 = internal global ptr null, align 8

; Function Attrs: alwaysinline nounwind uwtable
define internal void @lean_dec_ref(ptr noundef %0) #1 {
  %2 = alloca ptr, align 8
  store ptr %0, ptr %2, align 8, !tbaa !4
  %3 = load ptr, ptr %2, align 8, !tbaa !4
  %4 = getelementptr inbounds nuw %struct.lean_object, ptr %3, i32 0, i32 0
  %5 = load i32, ptr %4, align 4, !tbaa !17
  %6 = icmp sgt i32 %5, 1
  %7 = zext i1 %6 to i32
  %8 = sext i32 %7 to i64
  %9 = call i64 @llvm.expect.i64(i64 %8, i64 1)
  %10 = icmp ne i64 %9, 0
  br i1 %10, label %11, label %16

11:                                               ; preds = %1
  %12 = load ptr, ptr %2, align 8, !tbaa !4
  %13 = getelementptr inbounds nuw %struct.lean_object, ptr %12, i32 0, i32 0
  %14 = load i32, ptr %13, align 4, !tbaa !17
  %15 = add i32 %14, -1
  store i32 %15, ptr %13, align 4, !tbaa !17
  br label %24

16:                                               ; preds = %1
  %17 = load ptr, ptr %2, align 8, !tbaa !4
  %18 = getelementptr inbounds nuw %struct.lean_object, ptr %17, i32 0, i32 0
  %19 = load i32, ptr %18, align 4, !tbaa !17
  %20 = icmp ne i32 %19, 0
  br i1 %20, label %21, label %23

21:                                               ; preds = %16
  %22 = load ptr, ptr %2, align 8, !tbaa !4
  call void @lean_dec_ref_cold(ptr noundef %22)
  br label %23

23:                                               ; preds = %21, %16
  br label %24

24:                                               ; preds = %23, %11
  ret void
}

; Function Attrs: inlinehint nounwind uwtable
define internal zeroext i8 @lean_ptr_tag(ptr noundef %0) #0 {
  %2 = alloca ptr, align 8
  store ptr %0, ptr %2, align 8, !tbaa !4
  %3 = load ptr, ptr %2, align 8, !tbaa !4
  %4 = getelementptr inbounds nuw %struct.lean_object, ptr %3, i32 0, i32 1
  %5 = load i32, ptr %4, align 4
  %6 = lshr i32 %5, 24
  %7 = trunc i32 %6 to i8
  ret i8 %7
}

; Function Attrs: inlinehint nounwind uwtable
define internal i64 @lean_unbox(ptr noundef %0) #0 {
  %2 = alloca ptr, align 8
  store ptr %0, ptr %2, align 8, !tbaa !4
  %3 = load ptr, ptr %2, align 8, !tbaa !4
  %4 = ptrtoint ptr %3 to i64
  %5 = lshr i64 %4, 1
  ret i64 %5
}

; Function Attrs: alwaysinline nounwind uwtable
define internal zeroext i1 @lean_is_scalar(ptr noundef %0) #1 {
  %2 = alloca ptr, align 8
  store ptr %0, ptr %2, align 8, !tbaa !4
  %3 = load ptr, ptr %2, align 8, !tbaa !4
  %4 = ptrtoint ptr %3 to i64
  %5 = and i64 %4, 1
  %6 = icmp eq i64 %5, 1
  ret i1 %6
}

; Function Attrs: alwaysinline nounwind uwtable
define internal void @lean_dec(ptr noundef %0) #1 {
  %2 = alloca ptr, align 8
  store ptr %0, ptr %2, align 8, !tbaa !4
  %3 = load ptr, ptr %2, align 8, !tbaa !4
  %4 = call zeroext i1 @lean_is_scalar(ptr noundef %3)
  br i1 %4, label %7, label %5

5:                                                ; preds = %1
  %6 = load ptr, ptr %2, align 8, !tbaa !4
  call void @lean_dec_ref(ptr noundef %6)
  br label %7

7:                                                ; preds = %5, %1
  ret void
}

; Function Attrs: inlinehint nounwind uwtable
define internal i32 @lean_obj_tag(ptr noundef %0) #0 {
  %2 = alloca i32, align 4
  %3 = alloca ptr, align 8
  store ptr %0, ptr %3, align 8, !tbaa !4
  %4 = load ptr, ptr %3, align 8, !tbaa !4
  %5 = call zeroext i1 @lean_is_scalar(ptr noundef %4)
  br i1 %5, label %6, label %10

6:                                                ; preds = %1
  %7 = load ptr, ptr %3, align 8, !tbaa !4
  %8 = call i64 @lean_unbox(ptr noundef %7)
  %9 = trunc i64 %8 to i32
  store i32 %9, ptr %2, align 4
  br label %14

10:                                               ; preds = %1
  %11 = load ptr, ptr %3, align 8, !tbaa !4
  %12 = call zeroext i8 @lean_ptr_tag(ptr noundef %11)
  %13 = zext i8 %12 to i32
  store i32 %13, ptr %2, align 4
  br label %14

14:                                               ; preds = %10, %6
  %15 = load i32, ptr %2, align 4
  ret i32 %15
}

; Function Attrs: inlinehint nounwind uwtable
define internal ptr @lean_box(i64 noundef %0) #0 {
  %2 = alloca i64, align 8
  store i64 %0, ptr %2, align 8, !tbaa !12
  %3 = load i64, ptr %2, align 8, !tbaa !12
  %4 = shl i64 %3, 1
  %5 = or i64 %4, 1
  %6 = inttoptr i64 %5 to ptr
  ret ptr %6
}

; Function Attrs: nounwind uwtable
define ptr @l___private_Lean_Data_FuzzyMatching_0__Lean_FuzzyMatching_fuzzyMatchCore_allowMatch___lambda__2(i8 noundef zeroext %0, i8 noundef zeroext %1, ptr noundef %2) #2 {
  %4 = alloca ptr, align 8
  %5 = alloca i8, align 1
  %6 = alloca i8, align 1
  %7 = alloca ptr, align 8
  %8 = alloca ptr, align 8
  %9 = alloca ptr, align 8
  %10 = alloca ptr, align 8
  %11 = alloca i32, align 4
  %12 = alloca i8, align 1
  %13 = alloca ptr, align 8
  %14 = alloca ptr, align 8
  store i8 %0, ptr %5, align 1, !tbaa !14
  store i8 %1, ptr %6, align 1, !tbaa !14
  store ptr %2, ptr %7, align 8, !tbaa !4
  br label %15

15:                                               ; preds = %3
  call void @llvm.lifetime.start.p0(i64 8, ptr %8) #8
  %16 = load i8, ptr %5, align 1, !tbaa !14
  %17 = zext i8 %16 to i64
  %18 = call ptr @lean_box(i64 noundef %17)
  store ptr %18, ptr %8, align 8, !tbaa !4
  %19 = load ptr, ptr %8, align 8, !tbaa !4
  %20 = call i32 @lean_obj_tag(ptr noundef %19)
  %21 = icmp eq i32 %20, 0
  br i1 %21, label %22, label %39

22:                                               ; preds = %15
  call void @llvm.lifetime.start.p0(i64 8, ptr %9) #8
  %23 = load i8, ptr %6, align 1, !tbaa !14
  %24 = zext i8 %23 to i64
  %25 = call ptr @lean_box(i64 noundef %24)
  store ptr %25, ptr %9, align 8, !tbaa !4
  %26 = load ptr, ptr %9, align 8, !tbaa !4
  %27 = call i32 @lean_obj_tag(ptr noundef %26)
  %28 = icmp eq i32 %27, 0
  br i1 %28, label %29, label %32

29:                                               ; preds = %22
  call void @llvm.lifetime.start.p0(i64 8, ptr %10) #8
  %30 = load ptr, ptr @l___private_Lean_Data_FuzzyMatching_0__Lean_FuzzyMatching_fuzzyMatchCore_allowMatch___lambda__2___closed__2, align 8, !tbaa !4
  store ptr %30, ptr %10, align 8, !tbaa !4
  %31 = load ptr, ptr %10, align 8, !tbaa !4
  store ptr %31, ptr %4, align 8
  store i32 1, ptr %11, align 4
  call void @llvm.lifetime.end.p0(i64 8, ptr %10) #8
  br label %38

32:                                               ; preds = %22
  call void @llvm.lifetime.start.p0(i64 1, ptr %12) #8
  call void @llvm.lifetime.start.p0(i64 8, ptr %13) #8
  %33 = load ptr, ptr %9, align 8, !tbaa !4
  call void @lean_dec(ptr noundef %33)
  store i8 0, ptr %12, align 1, !tbaa !14
  %34 = load i8, ptr %12, align 1, !tbaa !14
  %35 = zext i8 %34 to i64
  %36 = call ptr @lean_box(i64 noundef %35)
  store ptr %36, ptr %13, align 8, !tbaa !4
  %37 = load ptr, ptr %13, align 8, !tbaa !4
  store ptr %37, ptr %4, align 8
  store i32 1, ptr %11, align 4
  call void @llvm.lifetime.end.p0(i64 8, ptr %13) #8
  call void @llvm.lifetime.end.p0(i64 1, ptr %12) #8
  br label %38

38:                                               ; preds = %32, %29
  call void @llvm.lifetime.end.p0(i64 8, ptr %9) #8
  br label %43

39:                                               ; preds = %15
  call void @llvm.lifetime.start.p0(i64 8, ptr %14) #8
  %40 = load ptr, ptr %8, align 8, !tbaa !4
  call void @lean_dec(ptr noundef %40)
  %41 = load ptr, ptr @l___private_Lean_Data_FuzzyMatching_0__Lean_FuzzyMatching_fuzzyMatchCore_allowMatch___lambda__2___closed__2, align 8, !tbaa !4
  store ptr %41, ptr %14, align 8, !tbaa !4
  %42 = load ptr, ptr %14, align 8, !tbaa !4
  store ptr %42, ptr %4, align 8
  store i32 1, ptr %11, align 4
  call void @llvm.lifetime.end.p0(i64 8, ptr %14) #8
  br label %43

43:                                               ; preds = %39, %38
  call void @llvm.lifetime.end.p0(i64 8, ptr %8) #8
  %44 = load ptr, ptr %4, align 8
  ret ptr %44
}