; Function Attrs: mustprogress nofree norecurse nosync nounwind willreturn memory(read, argmem: none, inaccessiblemem: none) uwtable
define ptr @l___private_Lean_Data_FuzzyMatching_0__Lean_FuzzyMatching_fuzzyMatchCore_allowMatch___lambda__2(i8 noundef zeroext %0, i8 noundef zeroext %1, ptr noundef readnone captures(none) %2) local_unnamed_addr #3 {
  %4 = icmp eq i8 %0, 0
  br i1 %4, label %5, label %lean_dec.exit

5:                                                ; preds = %3
  %6 = icmp eq i8 %1, 0
  br i1 %6, label %7, label %lean_dec.exit10

7:                                                ; preds = %5
  %8 = load ptr, ptr @l___private_Lean_Data_FuzzyMatching_0__Lean_FuzzyMatching_fuzzyMatchCore_allowMatch___lambda__2___closed__2, align 8, !tbaa !11
  br label %lean_dec.exit10

lean_dec.exit:                                    ; preds = %3
  %9 = load ptr, ptr @l___private_Lean_Data_FuzzyMatching_0__Lean_FuzzyMatching_fuzzyMatchCore_allowMatch___lambda__2___closed__2, align 8, !tbaa !11
  br label %lean_dec.exit10

lean_dec.exit10:                                  ; preds = %5, %7, %lean_dec.exit
  %.1 = phi ptr [ %9, %lean_dec.exit ], [ %8, %7 ], [ inttoptr (i64 1 to ptr), %5 ]
  ret ptr %.1
}